target datalayout = "e-m:e-p270:32:32-p271:32:32-p272:64:64-i64:64-i128:128-f80:128-n8:16:32:64-S128"
target triple = "x86_64-pc-linux-gnu"

%struct.pointf_s = type { double, double }

; Function Attrs: nounwind uwtable
define internal i32 @sgn(i32 noundef %0) #0 {
  %2 = alloca i32, align 4
  store i32 %0, ptr %2, align 4, !tbaa !35
  %3 = load i32, ptr %2, align 4, !tbaa !35
  %4 = icmp sgt i32 %3, 0
  %5 = select i1 %4, i32 1, i32 -1
  ret i32 %5
}

; Function Attrs: nounwind uwtable
define internal void @fillLine(double %0, double %1, double %2, double %3, ptr noundef %4) #0 {
  %6 = alloca %struct.pointf_s, align 8
  %7 = alloca %struct.pointf_s, align 8
  %8 = alloca ptr, align 8
  %9 = alloca i32, align 4
  %10 = alloca i32, align 4
  %11 = alloca i32, align 4
  %12 = alloca i32, align 4
  %13 = alloca i32, align 4
  %14 = alloca i32, align 4
  %15 = alloca i32, align 4
  %16 = alloca i32, align 4
  %17 = alloca i32, align 4
  %18 = alloca i32, align 4
  %19 = alloca i32, align 4
  %20 = alloca i32, align 4
  %21 = alloca i32, align 4
  %22 = alloca i32, align 4
  %23 = getelementptr inbounds nuw { double, double }, ptr %6, i32 0, i32 0
  store double %0, ptr %23, align 8
  %24 = getelementptr inbounds nuw { double, double }, ptr %6, i32 0, i32 1
  store double %1, ptr %24, align 8
  %25 = getelementptr inbounds nuw { double, double }, ptr %7, i32 0, i32 0
  store double %2, ptr %25, align 8
  %26 = getelementptr inbounds nuw { double, double }, ptr %7, i32 0, i32 1
  store double %3, ptr %26, align 8
  store ptr %4, ptr %8, align 8, !tbaa !76
  call void @llvm.lifetime.start.p0(i64 4, ptr %9) #12
  %27 = getelementptr inbounds nuw %struct.pointf_s, ptr %6, i32 0, i32 0
  %28 = load double, ptr %27, align 8, !tbaa !57
  %29 = fcmp oge double %28, 0.000000e+00
  br i1 %29, label %30, label %35

30:                                               ; preds = %5
  %31 = getelementptr inbounds nuw %struct.pointf_s, ptr %6, i32 0, i32 0
  %32 = load double, ptr %31, align 8, !tbaa !57
  %33 = fadd double %32, 5.000000e-01
  %34 = fptosi double %33 to i32
  br label %40

35:                                               ; preds = %5
  %36 = getelementptr inbounds nuw %struct.pointf_s, ptr %6, i32 0, i32 0
  %37 = load double, ptr %36, align 8, !tbaa !57
  %38 = fsub double %37, 5.000000e-01
  %39 = fptosi double %38 to i32
  br label %40

40:                                               ; preds = %35, %30
  %41 = phi i32 [ %34, %30 ], [ %39, %35 ]
  store i32 %41, ptr %9, align 4, !tbaa !35
  call void @llvm.lifetime.start.p0(i64 4, ptr %10) #12
  %42 = getelementptr inbounds nuw %struct.pointf_s, ptr %6, i32 0, i32 1
  %43 = load double, ptr %42, align 8, !tbaa !59
  %44 = fcmp oge double %43, 0.000000e+00
  br i1 %44, label %45, label %50

45:                                               ; preds = %40
  %46 = getelementptr inbounds nuw %struct.pointf_s, ptr %6, i32 0, i32 1
  %47 = load double, ptr %46, align 8, !tbaa !59
  %48 = fadd double %47, 5.000000e-01
  %49 = fptosi double %48 to i32
  br label %55

50:                                               ; preds = %40
  %51 = getelementptr inbounds nuw %struct.pointf_s, ptr %6, i32 0, i32 1
  %52 = load double, ptr %51, align 8, !tbaa !59
  %53 = fsub double %52, 5.000000e-01
  %54 = fptosi double %53 to i32
  br label %55

55:                                               ; preds = %50, %45
  %56 = phi i32 [ %49, %45 ], [ %54, %50 ]
  store i32 %56, ptr %10, align 4, !tbaa !35
  call void @llvm.lifetime.start.p0(i64 4, ptr %11) #12
  %57 = getelementptr inbounds nuw %struct.pointf_s, ptr %7, i32 0, i32 0
  %58 = load double, ptr %57, align 8, !tbaa !57
  %59 = fcmp oge double %58, 0.000000e+00
  br i1 %59, label %60, label %65

60:                                               ; preds = %55
  %61 = getelementptr inbounds nuw %struct.pointf_s, ptr %7, i32 0, i32 0
  %62 = load double, ptr %61, align 8, !tbaa !57
  %63 = fadd double %62, 5.000000e-01
  %64 = fptosi double %63 to i32
  br label %70

65:                                               ; preds = %55
  %66 = getelementptr inbounds nuw %struct.pointf_s, ptr %7, i32 0, i32 0
  %67 = load double, ptr %66, align 8, !tbaa !57
  %68 = fsub double %67, 5.000000e-01
  %69 = fptosi double %68 to i32
  br label %70

70:                                               ; preds = %65, %60
  %71 = phi i32 [ %64, %60 ], [ %69, %65 ]
  store i32 %71, ptr %11, align 4, !tbaa !35
  call void @llvm.lifetime.start.p0(i64 4, ptr %12) #12
  %72 = getelementptr inbounds nuw %struct.pointf_s, ptr %7, i32 0, i32 1
  %73 = load double, ptr %72, align 8, !tbaa !59
  %74 = fcmp oge double %73, 0.000000e+00
  br i1 %74, label %75, label %80

75:                                               ; preds = %70
  %76 = getelementptr inbounds nuw %struct.pointf_s, ptr %7, i32 0, i32 1
  %77 = load double, ptr %76, align 8, !tbaa !59
  %78 = fadd double %77, 5.000000e-01
  %79 = fptosi double %78 to i32
  br label %85

80:                                               ; preds = %70
  %81 = getelementptr inbounds nuw %struct.pointf_s, ptr %7, i32 0, i32 1
  %82 = load double, ptr %81, align 8, !tbaa !59
  %83 = fsub double %82, 5.000000e-01
  %84 = fptosi double %83 to i32
  br label %85

85:                                               ; preds = %80, %75
  %86 = phi i32 [ %79, %75 ], [ %84, %80 ]
  store i32 %86, ptr %12, align 4, !tbaa !35
  call void @llvm.lifetime.start.p0(i64 4, ptr %13) #12
  call void @llvm.lifetime.start.p0(i64 4, ptr %14) #12
  call void @llvm.lifetime.start.p0(i64 4, ptr %15) #12
  call void @llvm.lifetime.start.p0(i64 4, ptr %16) #12
  call void @llvm.lifetime.start.p0(i64 4, ptr %17) #12
  call void @llvm.lifetime.start.p0(i64 4, ptr %18) #12
  call void @llvm.lifetime.start.p0(i64 4, ptr %19) #12
  call void @llvm.lifetime.start.p0(i64 4, ptr %20) #12
  call void @llvm.lifetime.start.p0(i64 4, ptr %21) #12
  %87 = load i32, ptr %11, align 4, !tbaa !35
  %88 = load i32, ptr %9, align 4, !tbaa !35
  %89 = sub nsw i32 %87, %88
  store i32 %89, ptr %20, align 4, !tbaa !35
  %90 = load i32, ptr %20, align 4, !tbaa !35
  %91 = call i32 @llvm.abs.i32(i32 %90, i1 true)
  %92 = shl i32 %91, 1
  store i32 %92, ptr %16, align 4, !tbaa !35
  %93 = load i32, ptr %20, align 4, !tbaa !35
  %94 = call i32 @sgn(i32 noundef %93)
  store i32 %94, ptr %18, align 4, !tbaa !35
  %95 = load i32, ptr %12, align 4, !tbaa !35
  %96 = load i32, ptr %10, align 4, !tbaa !35
  %97 = sub nsw i32 %95, %96
  store i32 %97, ptr %21, align 4, !tbaa !35
  %98 = load i32, ptr %21, align 4, !tbaa !35
  %99 = call i32 @llvm.abs.i32(i32 %98, i1 true)
  %100 = shl i32 %99, 1
  store i32 %100, ptr %17, align 4, !tbaa !35
  %101 = load i32, ptr %21, align 4, !tbaa !35
  %102 = call i32 @sgn(i32 noundef %101)
  store i32 %102, ptr %19, align 4, !tbaa !35
  %103 = load i32, ptr %9, align 4, !tbaa !35
  store i32 %103, ptr %14, align 4, !tbaa !35
  %104 = load i32, ptr %10, align 4, !tbaa !35
  store i32 %104, ptr %15, align 4, !tbaa !35
  %105 = load i32, ptr %16, align 4, !tbaa !35
  %106 = load i32, ptr %17, align 4, !tbaa !35
  %107 = icmp sgt i32 %105, %106
  br i1 %107, label %108, label %140

108:                                              ; preds = %85
  %109 = load i32, ptr %17, align 4, !tbaa !35
  %110 = load i32, ptr %16, align 4, !tbaa !35
  %111 = ashr i32 %110, 1
  %112 = sub nsw i32 %109, %111
  store i32 %112, ptr %13, align 4, !tbaa !35
  br label %113

113:                                              ; preds = %133, %108
  %114 = load ptr, ptr %8, align 8, !tbaa !76
  %115 = load i32, ptr %14, align 4, !tbaa !35
  %116 = sitofp i32 %115 to double
  %117 = load i32, ptr %15, align 4, !tbaa !35
  %118 = sitofp i32 %117 to double
  call void @addPS(ptr noundef %114, double noundef %116, double noundef %118)
  %119 = load i32, ptr %14, align 4, !tbaa !35
  %120 = load i32, ptr %11, align 4, !tbaa !35
  %121 = icmp eq i32 %119, %120
  br i1 %121, label %122, label %123

122:                                              ; preds = %113
  store i32 1, ptr %22, align 4
  br label %172

123:                                              ; preds = %113
  %124 = load i32, ptr %13, align 4, !tbaa !35
  %125 = icmp sge i32 %124, 0
  br i1 %125, label %126, label %133

126:                                              ; preds = %123
  %127 = load i32, ptr %19, align 4, !tbaa !35
  %128 = load i32, ptr %15, align 4, !tbaa !35
  %129 = add nsw i32 %128, %127
  store i32 %129, ptr %15, align 4, !tbaa !35
  %130 = load i32, ptr %16, align 4, !tbaa !35
  %131 = load i32, ptr %13, align 4, !tbaa !35
  %132 = sub nsw i32 %131, %130
  store i32 %132, ptr %13, align 4, !tbaa !35
  br label %133

133:                                              ; preds = %126, %123
  %134 = load i32, ptr %18, align 4, !tbaa !35
  %135 = load i32, ptr %14, align 4, !tbaa !35
  %136 = add nsw i32 %135, %134
  store i32 %136, ptr %14, align 4, !tbaa !35
  %137 = load i32, ptr %17, align 4, !tbaa !35
  %138 = load i32, ptr %13, align 4, !tbaa !35
  %139 = add nsw i32 %138, %137
  store i32 %139, ptr %13, align 4, !tbaa !35
  br label %113

140:                                              ; preds = %85
  %141 = load i32, ptr %16, align 4, !tbaa !35
  %142 = load i32, ptr %17, align 4, !tbaa !35
  %143 = ashr i32 %142, 1
  %144 = sub nsw i32 %141, %143
  store i32 %144, ptr %13, align 4, !tbaa !35
  br label %145

145:                                              ; preds = %165, %140
  %146 = load ptr, ptr %8, align 8, !tbaa !76
  %147 = load i32, ptr %14, align 4, !tbaa !35
  %148 = sitofp i32 %147 to double
  %149 = load i32, ptr %15, align 4, !tbaa !35
  %150 = sitofp i32 %149 to double
  call void @addPS(ptr noundef %146, double noundef %148, double noundef %150)
  %151 = load i32, ptr %15, align 4, !tbaa !35
  %152 = load i32, ptr %12, align 4, !tbaa !35
  %153 = icmp eq i32 %151, %152
  br i1 %153, label %154, label %155

154:                                              ; preds = %145
  store i32 1, ptr %22, align 4
  br label %172

155:                                              ; preds = %145
  %156 = load i32, ptr %13, align 4, !tbaa !35
  %157 = icmp sge i32 %156, 0
  br i1 %157, label %158, label %165

158:                                              ; preds = %155
  %159 = load i32, ptr %18, align 4, !tbaa !35
  %160 = load i32, ptr %14, align 4, !tbaa !35
  %161 = add nsw i32 %160, %159
  store i32 %161, ptr %14, align 4, !tbaa !35
  %162 = load i32, ptr %17, align 4, !tbaa !35
  %163 = load i32, ptr %13, align 4, !tbaa !35
  %164 = sub nsw i32 %163, %162
  store i32 %164, ptr %13, align 4, !tbaa !35
  br label %165

165:                                              ; preds = %158, %155
  %166 = load i32, ptr %19, align 4, !tbaa !35
  %167 = load i32, ptr %15, align 4, !tbaa !35
  %168 = add nsw i32 %167, %166
  store i32 %168, ptr %15, align 4, !tbaa !35
  %169 = load i32, ptr %16, align 4, !tbaa !35
  %170 = load i32, ptr %13, align 4, !tbaa !35
  %171 = add nsw i32 %170, %169
  store i32 %171, ptr %13, align 4, !tbaa !35
  br label %145

172:                                              ; preds = %154, %122
  call void @llvm.lifetime.end.p0(i64 4, ptr %21) #12
  call void @llvm.lifetime.end.p0(i64 4, ptr %20) #12
  call void @llvm.lifetime.end.p0(i64 4, ptr %19) #12
  call void @llvm.lifetime.end.p0(i64 4, ptr %18) #12
  call void @llvm.lifetime.end.p0(i64 4, ptr %17) #12
  call void @llvm.lifetime.end.p0(i64 4, ptr %16) #12
  call void @llvm.lifetime.end.p0(i64 4, ptr %15) #12
  call void @llvm.lifetime.end.p0(i64 4, ptr %14) #12
  call void @llvm.lifetime.end.p0(i64 4, ptr %13) #12
  call void @llvm.lifetime.end.p0(i64 4, ptr %12) #12
  call void @llvm.lifetime.end.p0(i64 4, ptr %11) #12
  call void @llvm.lifetime.end.p0(i64 4, ptr %10) #12
  call void @llvm.lifetime.end.p0(i64 4, ptr %9) #12
  ret void
}