; Function Attrs: nounwind uwtable
define internal fastcc void @fillLine(double %0, double %1, double %2, double %3, ptr noundef %4) unnamed_addr #0 {
  %6 = fcmp ult double %0, 0.000000e+00
  %.in.v = select i1 %6, double -5.000000e-01, double 5.000000e-01
  %.in = fadd double %0, %.in.v
  %7 = fptosi double %.in to i32
  %8 = fcmp ult double %1, 0.000000e+00
  %.in71.v = select i1 %8, double -5.000000e-01, double 5.000000e-01
  %.in71 = fadd double %1, %.in71.v
  %9 = fptosi double %.in71 to i32
  %10 = fcmp ult double %2, 0.000000e+00
  %.in72.v = select i1 %10, double -5.000000e-01, double 5.000000e-01
  %.in72 = fadd double %2, %.in72.v
  %11 = fptosi double %.in72 to i32
  %12 = fcmp ult double %3, 0.000000e+00
  %.in73.v = select i1 %12, double -5.000000e-01, double 5.000000e-01
  %.in73 = fadd double %3, %.in73.v
  %13 = fptosi double %.in73 to i32
  %14 = sub nsw i32 %11, %7
  %15 = tail call i32 @llvm.abs.i32(i32 %14, i1 true)
  %16 = shl nuw i32 %15, 1
  %.inv.i = icmp slt i32 %14, 1
  %17 = select i1 %.inv.i, i32 -1, i32 1
  %18 = sub nsw i32 %13, %9
  %19 = tail call i32 @llvm.abs.i32(i32 %18, i1 true)
  %20 = shl nuw i32 %19, 1
  %.inv.i74 = icmp slt i32 %18, 1
  %21 = select i1 %.inv.i74, i32 -1, i32 1
  %22 = icmp sgt i32 %16, %20
  %23 = sitofp i32 %7 to double
  %24 = sitofp i32 %9 to double
  tail call void @addPS(ptr noundef %4, double noundef %23, double noundef %24) #19
  br i1 %22, label %25, label %37

25:                                               ; preds = %5
  %26 = icmp eq i32 %7, %11
  br i1 %26, label %.loopexit, label %.lr.ph83.preheader

.lr.ph83.preheader:                               ; preds = %25
  %27 = ashr exact i32 %16, 1
  %28 = sub nsw i32 %20, %27
  br label %.lr.ph83

.lr.ph83:                                         ; preds = %.lr.ph83.preheader, %.lr.ph83
  %.082 = phi i32 [ %33, %.lr.ph83 ], [ %28, %.lr.ph83.preheader ]
  %.05381 = phi i32 [ %32, %.lr.ph83 ], [ %7, %.lr.ph83.preheader ]
  %.05680 = phi i32 [ %.157, %.lr.ph83 ], [ %9, %.lr.ph83.preheader ]
  %29 = icmp sgt i32 %.082, -1
  %30 = select i1 %29, i32 %21, i32 0
  %.157 = add nsw i32 %30, %.05680
  %31 = select i1 %29, i32 %16, i32 0
  %32 = add nsw i32 %.05381, %17
  %.1 = add i32 %.082, %20
  %33 = sub i32 %.1, %31
  %34 = sitofp i32 %32 to double
  %35 = sitofp i32 %.157 to double
  tail call void @addPS(ptr noundef %4, double noundef %34, double noundef %35) #19
  %36 = icmp eq i32 %32, %11
  br i1 %36, label %.loopexit, label %.lr.ph83

37:                                               ; preds = %5
  %38 = icmp eq i32 %9, %13
  br i1 %38, label %.loopexit, label %.lr.ph.preheader

.lr.ph.preheader:                                 ; preds = %37
  %39 = ashr exact i32 %20, 1
  %40 = sub nsw i32 %16, %39
  br label %.lr.ph

.lr.ph:                                           ; preds = %.lr.ph.preheader, %.lr.ph
  %.279 = phi i32 [ %45, %.lr.ph ], [ %40, %.lr.ph.preheader ]
  %.15478 = phi i32 [ %.255, %.lr.ph ], [ %7, %.lr.ph.preheader ]
  %.25877 = phi i32 [ %44, %.lr.ph ], [ %9, %.lr.ph.preheader ]
  %41 = icmp sgt i32 %.279, -1
  %42 = select i1 %41, i32 %17, i32 0
  %.255 = add nsw i32 %42, %.15478
  %43 = select i1 %41, i32 %20, i32 0
  %44 = add nsw i32 %.25877, %21
  %.3 = add i32 %.279, %16
  %45 = sub i32 %.3, %43
  %46 = sitofp i32 %.255 to double
  %47 = sitofp i32 %44 to double
  tail call void @addPS(ptr noundef %4, double noundef %46, double noundef %47) #19
  %48 = icmp eq i32 %44, %13
  br i1 %48, label %.loopexit, label %.lr.ph

.loopexit:                                        ; preds = %.lr.ph, %.lr.ph83, %37, %25
  ret void
}